(dp0
VCivic Center
p1
I14
sVBeach House Lot
p2
I0
sVLot 3 North
p3
I9
sVPier Deck
p4
I11
sVLot 1 North
p5
I10
sVStructure 4
p6
I4
sVStructure 5
p7
I5
sVStructure 6
p8
I6
sVStructure 7
p9
I16
sVStructure 1
p10
I1
sVStructure 2
p11
I2
sVStructure 3
p12
I3
sVLot 4 South
p13
I12
sVLot 5 South
p14
I13
sVLibrary
p15
I15
sVStructure 8
p16
I17
sVStructure 9
p17
I7
sVLot 8 North
p18
I8
s.