(dp0
VLot 8
p1
I7
sVCivic Center
p2
I1
sVBeach Lot
p3
I0
sVLot 1
p4
I3
sVLot 3
p5
I4
sVLot 4
p6
I5
sVLot 5
p7
I6
sVLibrary
p8
I2
sVStructure 4
p9
I12
sVStructure 5
p10
I13
sVPier Deck
p11
I8
sVStructure 7
p12
I15
sVStructure 1
p13
I9
sVStructure 2
p14
I10
sVStructure 3
p15
I11
sVStructure 8
p16
I16
sVStructure 9
p17
I17
sVStructure 6
p18
I14
s.