(dp0
I0
(dp1
S'Latitude'
p2
F34.023972
sS'TopicID'
p3
I0
sS'Name'
p4
VBeach Lot
p5
sS'Longitude'
p6
F-118.512472
ssI1
(dp7
g2
F34.01158
sg3
I1
sg4
VCivic Center
p8
sg6
F-118.48997
ssI2
(dp9
g2
F34.019
sg3
I2
sg4
VLibrary
p10
sg6
F-118.49361
ssI3
(dp11
g2
F34.010806
sg3
I0
sg4
VLot 1
p12
sg6
F-118.497361
ssI4
(dp13
g2
F34.016806
sg3
I1
sg4
VLot 3
p14
sg6
F-118.50275
ssI5
(dp15
g2
F34.003028
sg3
I2
sg4
VLot 4
p16
sg6
F-118.488639
ssI6
(dp17
g2
F33.998833
sg3
I0
sg4
VLot 5
p18
sg6
F-118.484722
ssI7
(dp19
g2
F34.021
sg3
I1
sg4
VLot 8
p20
sg6
F-118.508333
ssI8
(dp21
g2
F34.009333
sg3
I2
sg4
VPier Deck
p22
sg6
F-118.496389
ssI9
(dp23
g2
F34.018203
sg3
I0
sg4
VStructure 1
p24
sg6
F-118.497761
ssI10
(dp25
g2
F34.016861
sg3
I1
sg4
VStructure 2
p26
sg6
F-118.498889
ssI11
(dp27
g2
F34.017061
sg3
I2
sg4
VStructure 3
p28
sg6
F-118.496456
ssI12
(dp29
g2
F34.015967
sg3
I0
sg4
VStructure 4
p30
sg6
F-118.497917
ssI13
(dp31
g2
F34.015231
sg3
I1
sg4
VStructure 5
p32
sg6
F-118.494303
ssI14
(dp33
g2
F34.014328
sg3
I2
sg4
VStructure 6
p34
sg6
F-118.495875
ssI15
(dp35
g2
F90401.0
sg3
I0
sg4
VStructure 7
p36
sg6
F34.01444
ssI16
(dp37
g2
F90401.0
sg3
I1
sg4
VStructure 8
p38
sg6
F34.01289
ssI17
(dp39
g2
F34.019575
sg3
I2
sg4
VStructure 9
p40
sg6
F-118.499378
ss.